target datalayout = "e-m:e-p270:32:32-p271:32:32-p272:64:64-i64:64-i128:128-f80:128-n8:16:32:64-S128"
target triple = "x86_64-pc-linux-gnu"

%struct.lua_TValue = type { %union.Value, [1 x i32], i32 }
%union.Value = type { ptr }
%struct.TString = type { i8, i8, i8, i16, ptr, i32, i32, [1 x i8] }

@.str.9 = private unnamed_addr constant [30 x i8] c"attempt to index %s with '%s'\00", align 1
@.str.10 = private unnamed_addr constant [28 x i8] c"attempt to index %s with %s\00", align 1

; Function Attrs: mustprogress noreturn uwtable
define hidden void @_Z15luaG_indexerrorP9lua_StatePK10lua_TValueS3_(ptr noundef %0, ptr noundef %1, ptr noundef %2) #5 {
  %4 = alloca ptr, align 8
  %5 = alloca ptr, align 8
  %6 = alloca ptr, align 8
  %7 = alloca ptr, align 8
  %8 = alloca ptr, align 8
  %9 = alloca ptr, align 8
  store ptr %0, ptr %4, align 8, !tbaa !4
  store ptr %1, ptr %5, align 8, !tbaa !53
  store ptr %2, ptr %6, align 8, !tbaa !53
  call void @llvm.lifetime.start.p0(i64 8, ptr %7) #11
  %10 = load ptr, ptr %4, align 8, !tbaa !4
  %11 = load ptr, ptr %5, align 8, !tbaa !53
  %12 = call noundef ptr @_Z16luaT_objtypenameP9lua_StatePK10lua_TValue(ptr noundef %10, ptr noundef %11)
  store ptr %12, ptr %7, align 8, !tbaa !49
  call void @llvm.lifetime.start.p0(i64 8, ptr %8) #11
  %13 = load ptr, ptr %4, align 8, !tbaa !4
  %14 = load ptr, ptr %6, align 8, !tbaa !53
  %15 = call noundef ptr @_Z16luaT_objtypenameP9lua_StatePK10lua_TValue(ptr noundef %13, ptr noundef %14)
  store ptr %15, ptr %8, align 8, !tbaa !49
  call void @llvm.lifetime.start.p0(i64 8, ptr %9) #11
  %16 = load ptr, ptr %6, align 8, !tbaa !53
  %17 = getelementptr inbounds nuw %struct.lua_TValue, ptr %16, i32 0, i32 2
  %18 = load i32, ptr %17, align 4, !tbaa !41
  %19 = icmp eq i32 %18, 5
  br i1 %19, label %20, label %24

20:                                               ; preds = %3
  %21 = load ptr, ptr %6, align 8, !tbaa !53
  %22 = getelementptr inbounds nuw %struct.lua_TValue, ptr %21, i32 0, i32 0
  %23 = load ptr, ptr %22, align 8, !tbaa !37
  br label %25

24:                                               ; preds = %3
  br label %25

25:                                               ; preds = %24, %20
  %26 = phi ptr [ %23, %20 ], [ null, %24 ]
  store ptr %26, ptr %9, align 8, !tbaa !67
  %27 = load ptr, ptr %9, align 8, !tbaa !67
  %28 = icmp ne ptr %27, null
  br i1 %28, label %29, label %40

29:                                               ; preds = %25
  %30 = load ptr, ptr %9, align 8, !tbaa !67
  %31 = getelementptr inbounds nuw %struct.TString, ptr %30, i32 0, i32 6
  %32 = load i32, ptr %31, align 4, !tbaa !69
  %33 = icmp ule i32 %32, 64
  br i1 %33, label %34, label %40

34:                                               ; preds = %29
  %35 = load ptr, ptr %4, align 8, !tbaa !4
  %36 = load ptr, ptr %7, align 8, !tbaa !49
  %37 = load ptr, ptr %9, align 8, !tbaa !67
  %38 = getelementptr inbounds nuw %struct.TString, ptr %37, i32 0, i32 7
  %39 = getelementptr inbounds [1 x i8], ptr %38, i64 0, i64 0
  call void (ptr, ptr, ...) @_Z14luaG_runerrorLP9lua_StatePKcz(ptr noundef %35, ptr noundef @.str.9, ptr noundef %36, ptr noundef %39) #12
  unreachable

40:                                               ; preds = %29, %25
  %41 = load ptr, ptr %4, align 8, !tbaa !4
  %42 = load ptr, ptr %7, align 8, !tbaa !49
  %43 = load ptr, ptr %8, align 8, !tbaa !49
  call void (ptr, ptr, ...) @_Z14luaG_runerrorLP9lua_StatePKcz(ptr noundef %41, ptr noundef @.str.10, ptr noundef %42, ptr noundef %43) #12
  unreachable
}