; Function Attrs: mustprogress noreturn uwtable
define hidden void @_Z15luaG_indexerrorP9lua_StatePK10lua_TValueS3_(ptr noundef %0, ptr noundef %1, ptr noundef %2) local_unnamed_addr #5 {
  %4 = tail call noundef ptr @_Z16luaT_objtypenameP9lua_StatePK10lua_TValue(ptr noundef %0, ptr noundef %1)
  %5 = tail call noundef ptr @_Z16luaT_objtypenameP9lua_StatePK10lua_TValue(ptr noundef %0, ptr noundef %2)
  %6 = getelementptr inbounds nuw i8, ptr %2, i64 12
  %7 = load i32, ptr %6, align 4, !tbaa !24
  %8 = icmp eq i32 %7, 5
  br i1 %8, label %9, label %.thread

9:                                                ; preds = %3
  %10 = load ptr, ptr %2, align 8, !tbaa !26
  %.not = icmp eq ptr %10, null
  br i1 %.not, label %.thread, label %11

11:                                               ; preds = %9
  %12 = getelementptr inbounds nuw i8, ptr %10, i64 20
  %13 = load i32, ptr %12, align 4, !tbaa !55
  %14 = icmp ult i32 %13, 65
  br i1 %14, label %15, label %.thread

15:                                               ; preds = %11
  %16 = getelementptr inbounds nuw i8, ptr %10, i64 24
  tail call void (ptr, ptr, ...) @_Z14luaG_runerrorLP9lua_StatePKcz(ptr noundef %0, ptr noundef nonnull @.str.9, ptr noundef %4, ptr noundef nonnull %16) #15
  unreachable

.thread:                                          ; preds = %3, %11, %9
  tail call void (ptr, ptr, ...) @_Z14luaG_runerrorLP9lua_StatePKcz(ptr noundef %0, ptr noundef nonnull @.str.10, ptr noundef %4, ptr noundef %5) #15
  unreachable
}